; Function Attrs: mustprogress nofree norecurse nosync nounwind willreturn memory(readwrite, inaccessiblemem: none) uwtable
define hidden void @_ZN8datatype8accessor9fix_rangeERK10ref_vectorI4sort11ast_managerE(ptr noundef nonnull align 8 captures(none) dereferenceable(40) %0, ptr noundef nonnull readonly align 8 captures(none) dereferenceable(16) %1) local_unnamed_addr #3 align 2 {
  %3 = getelementptr inbounds nuw i8, ptr %0, i64 8
  %4 = load ptr, ptr %3, align 8, !tbaa !3
  %5 = icmp eq ptr %4, null
  br i1 %5, label %6, label %17

6:                                                ; preds = %2
  %7 = getelementptr inbounds nuw i8, ptr %0, i64 24
  %8 = load i32, ptr %7, align 8, !tbaa !10
  %9 = getelementptr inbounds nuw i8, ptr %1, i64 8
  %10 = load ptr, ptr %9, align 8, !tbaa !16
  %11 = zext i32 %8 to i64
  %12 = getelementptr inbounds nuw ptr, ptr %10, i64 %11
  %13 = load ptr, ptr %12, align 8, !tbaa !20
  %.not.i = icmp eq ptr %13, null
  br i1 %.not.i, label %_ZN7obj_refI4sort11ast_managerEaSEPS0_.exit, label %_ZN11ast_manager7inc_refEP3ast.exit.i

_ZN11ast_manager7inc_refEP3ast.exit.i:            ; preds = %6
  %14 = getelementptr inbounds nuw i8, ptr %13, i64 8
  %15 = load i32, ptr %14, align 4, !tbaa !21
  %16 = add i32 %15, 1
  store i32 %16, ptr %14, align 4, !tbaa !21
  br label %_ZN7obj_refI4sort11ast_managerEaSEPS0_.exit

_ZN7obj_refI4sort11ast_managerEaSEPS0_.exit:      ; preds = %6, %_ZN11ast_manager7inc_refEP3ast.exit.i
  store ptr %13, ptr %3, align 8, !tbaa !3
  br label %17

17:                                               ; preds = %_ZN7obj_refI4sort11ast_managerEaSEPS0_.exit, %2
  ret void
}